target datalayout = "e-m:e-p270:32:32-p271:32:32-p272:64:64-i64:64-i128:128-f80:128-n8:16:32:64-S128"
target triple = "x86_64-pc-linux-gnu"

%"class.ceres::internal::LevenbergMarquardtStrategy" = type <{ %"class.ceres::internal::TrustRegionStrategy", ptr, double, double, double, double, double, i8, [7 x i8], %"class.Eigen::Matrix", %"class.Eigen::Matrix", ptr, i32, [4 x i8] }>
%"class.ceres::internal::TrustRegionStrategy" = type { ptr }
%"class.Eigen::Matrix" = type { %"class.Eigen::PlainObjectBase" }
%"class.Eigen::PlainObjectBase" = type { %"class.Eigen::DenseStorage" }
%"class.Eigen::DenseStorage" = type { ptr, i64 }

; Function Attrs: mustprogress nounwind uwtable
define hidden void @_ZN5ceres8internal26LevenbergMarquardtStrategy12StepRejectedEd(ptr noundef nonnull align 8 dereferenceable(112) %0, double noundef %1) unnamed_addr #1 align 2 {
  %3 = alloca ptr, align 8
  %4 = alloca double, align 8
  store ptr %0, ptr %3, align 8
  store double %1, ptr %4, align 8
  %5 = load ptr, ptr %3, align 8
  %6 = getelementptr inbounds %"class.ceres::internal::LevenbergMarquardtStrategy", ptr %5, i32 0, i32 2
  %7 = load double, ptr %6, align 8
  %8 = getelementptr inbounds %"class.ceres::internal::LevenbergMarquardtStrategy", ptr %5, i32 0, i32 6
  %9 = load double, ptr %8, align 8
  %10 = fdiv double %7, %9
  %11 = getelementptr inbounds %"class.ceres::internal::LevenbergMarquardtStrategy", ptr %5, i32 0, i32 2
  store double %10, ptr %11, align 8
  %12 = getelementptr inbounds %"class.ceres::internal::LevenbergMarquardtStrategy", ptr %5, i32 0, i32 6
  %13 = load double, ptr %12, align 8
  %14 = fmul double %13, 2.000000e+00
  store double %14, ptr %12, align 8
  %15 = getelementptr inbounds %"class.ceres::internal::LevenbergMarquardtStrategy", ptr %5, i32 0, i32 7
  store i8 1, ptr %15, align 8
  ret void
}