; Function Attrs: mustprogress nofree norecurse nosync nounwind willreturn memory(argmem: readwrite) uwtable
define hidden void @_ZN5ceres8internal26LevenbergMarquardtStrategy12StepRejectedEd(ptr nocapture noundef nonnull align 8 dereferenceable(112) %0, double %1) unnamed_addr #7 align 2 {
  %3 = getelementptr inbounds i8, ptr %0, i64 16
  %4 = load double, ptr %3, align 8
  %5 = getelementptr inbounds i8, ptr %0, i64 48
  %6 = load double, ptr %5, align 8
  %7 = fdiv double %4, %6
  store double %7, ptr %3, align 8
  %8 = fmul double %6, 2.000000e+00
  store double %8, ptr %5, align 8
  %9 = getelementptr inbounds i8, ptr %0, i64 56
  store i8 1, ptr %9, align 8
  ret void
}